target datalayout = "e-m:e-p270:32:32-p271:32:32-p272:64:64-i64:64-i128:128-f80:128-n8:16:32:64-S128"
target triple = "x86_64-unknown-linux-gnu"

%"struct.std::pair" = type <{ ptr, i32, [4 x i8] }>
%class.statistics = type { %class.svector, %class.svector.0 }
%class.svector = type { %class.vector }
%class.vector = type { ptr }
%class.svector.0 = type { %class.vector.1 }
%class.vector.1 = type { ptr }
%"struct.std::pair.2" = type { ptr, double }

@.str.9 = private unnamed_addr constant [13 x i8] c"rlimit count\00", align 1

; Function Attrs: mustprogress uwtable
define linkonce_odr hidden noundef nonnull align 8 dereferenceable(8) ptr @_ZN6vectorISt4pairIPKcdELb0EjE9push_backEOS3_(ptr noundef nonnull align 8 dereferenceable(8) %this, ptr noundef nonnull align 8 dereferenceable(16) %elem) #4 comdat align 2 {
entry:
  %this.addr = alloca ptr, align 8
  %elem.addr = alloca ptr, align 8
  store ptr %this, ptr %this.addr, align 8
  store ptr %elem, ptr %elem.addr, align 8
  %this1 = load ptr, ptr %this.addr, align 8
  %m_data = getelementptr inbounds %class.vector.1, ptr %this1, i32 0, i32 0
  %0 = load ptr, ptr %m_data, align 8
  %cmp = icmp eq ptr %0, null
  br i1 %cmp, label %if.then, label %lor.lhs.false

lor.lhs.false:                                    ; preds = %entry
  %m_data2 = getelementptr inbounds %class.vector.1, ptr %this1, i32 0, i32 0
  %1 = load ptr, ptr %m_data2, align 8
  %arrayidx = getelementptr inbounds i32, ptr %1, i64 -1
  %2 = load i32, ptr %arrayidx, align 4
  %m_data3 = getelementptr inbounds %class.vector.1, ptr %this1, i32 0, i32 0
  %3 = load ptr, ptr %m_data3, align 8
  %arrayidx4 = getelementptr inbounds i32, ptr %3, i64 -2
  %4 = load i32, ptr %arrayidx4, align 4
  %cmp5 = icmp eq i32 %2, %4
  br i1 %cmp5, label %if.then, label %if.end

if.then:                                          ; preds = %lor.lhs.false, %entry
  call void @_ZN6vectorISt4pairIPKcdELb0EjE13expand_vectorEv(ptr noundef nonnull align 8 dereferenceable(8) %this1)
  br label %if.end

if.end:                                           ; preds = %if.then, %lor.lhs.false
  %m_data6 = getelementptr inbounds %class.vector.1, ptr %this1, i32 0, i32 0
  %5 = load ptr, ptr %m_data6, align 8
  %m_data7 = getelementptr inbounds %class.vector.1, ptr %this1, i32 0, i32 0
  %6 = load ptr, ptr %m_data7, align 8
  %arrayidx8 = getelementptr inbounds i32, ptr %6, i64 -1
  %7 = load i32, ptr %arrayidx8, align 4
  %idx.ext = zext i32 %7 to i64
  %add.ptr = getelementptr inbounds %"struct.std::pair.2", ptr %5, i64 %idx.ext
  %8 = load ptr, ptr %elem.addr, align 8
  call void @llvm.memcpy.p0.p0.i64(ptr align 8 %add.ptr, ptr align 8 %8, i64 16, i1 false)
  %m_data9 = getelementptr inbounds %class.vector.1, ptr %this1, i32 0, i32 0
  %9 = load ptr, ptr %m_data9, align 8
  %arrayidx10 = getelementptr inbounds i32, ptr %9, i64 -1
  %10 = load i32, ptr %arrayidx10, align 4
  %inc = add i32 %10, 1
  store i32 %inc, ptr %arrayidx10, align 4
  ret ptr %this1
}

; Function Attrs: mustprogress nounwind uwtable
define linkonce_odr hidden void @_ZNSt4pairIPKcdEC2IRS1_RdTnNSt9enable_ifIXaaclsr5_PCCPE22_MoveConstructiblePairIT_T0_EEclsr5_PCCPE30_ImplicitlyMoveConvertiblePairIS7_S8_EEEbE4typeELb1EEEOS7_OS8_(ptr noundef nonnull align 8 dereferenceable(16) %this, ptr noundef nonnull align 8 dereferenceable(8) %__x, ptr noundef nonnull align 8 dereferenceable(8) %__y) unnamed_addr #5 comdat align 2 {
entry:
  %this.addr = alloca ptr, align 8
  %__x.addr = alloca ptr, align 8
  %__y.addr = alloca ptr, align 8
  store ptr %this, ptr %this.addr, align 8
  store ptr %__x, ptr %__x.addr, align 8
  store ptr %__y, ptr %__y.addr, align 8
  %this1 = load ptr, ptr %this.addr, align 8
  %first = getelementptr inbounds %"struct.std::pair.2", ptr %this1, i32 0, i32 0
  %0 = load ptr, ptr %__x.addr, align 8
  %1 = load ptr, ptr %0, align 8
  store ptr %1, ptr %first, align 8
  %second = getelementptr inbounds %"struct.std::pair.2", ptr %this1, i32 0, i32 1
  %2 = load ptr, ptr %__y.addr, align 8
  %3 = load double, ptr %2, align 8
  store double %3, ptr %second, align 8
  ret void
}

; Function Attrs: mustprogress uwtable
define linkonce_odr hidden noundef nonnull align 8 dereferenceable(8) ptr @_ZN6vectorISt4pairIPKcjELb0EjE9push_backEOS3_(ptr noundef nonnull align 8 dereferenceable(8) %this, ptr noundef nonnull align 8 dereferenceable(12) %elem) #4 comdat align 2 {
entry:
  %this.addr = alloca ptr, align 8
  %elem.addr = alloca ptr, align 8
  store ptr %this, ptr %this.addr, align 8
  store ptr %elem, ptr %elem.addr, align 8
  %this1 = load ptr, ptr %this.addr, align 8
  %m_data = getelementptr inbounds %class.vector, ptr %this1, i32 0, i32 0
  %0 = load ptr, ptr %m_data, align 8
  %cmp = icmp eq ptr %0, null
  br i1 %cmp, label %if.then, label %lor.lhs.false

lor.lhs.false:                                    ; preds = %entry
  %m_data2 = getelementptr inbounds %class.vector, ptr %this1, i32 0, i32 0
  %1 = load ptr, ptr %m_data2, align 8
  %arrayidx = getelementptr inbounds i32, ptr %1, i64 -1
  %2 = load i32, ptr %arrayidx, align 4
  %m_data3 = getelementptr inbounds %class.vector, ptr %this1, i32 0, i32 0
  %3 = load ptr, ptr %m_data3, align 8
  %arrayidx4 = getelementptr inbounds i32, ptr %3, i64 -2
  %4 = load i32, ptr %arrayidx4, align 4
  %cmp5 = icmp eq i32 %2, %4
  br i1 %cmp5, label %if.then, label %if.end

if.then:                                          ; preds = %lor.lhs.false, %entry
  call void @_ZN6vectorISt4pairIPKcjELb0EjE13expand_vectorEv(ptr noundef nonnull align 8 dereferenceable(8) %this1)
  br label %if.end

if.end:                                           ; preds = %if.then, %lor.lhs.false
  %m_data6 = getelementptr inbounds %class.vector, ptr %this1, i32 0, i32 0
  %5 = load ptr, ptr %m_data6, align 8
  %m_data7 = getelementptr inbounds %class.vector, ptr %this1, i32 0, i32 0
  %6 = load ptr, ptr %m_data7, align 8
  %arrayidx8 = getelementptr inbounds i32, ptr %6, i64 -1
  %7 = load i32, ptr %arrayidx8, align 4
  %idx.ext = zext i32 %7 to i64
  %add.ptr = getelementptr inbounds %"struct.std::pair", ptr %5, i64 %idx.ext
  %8 = load ptr, ptr %elem.addr, align 8
  call void @llvm.memcpy.p0.p0.i64(ptr align 8 %add.ptr, ptr align 8 %8, i64 16, i1 false)
  %m_data9 = getelementptr inbounds %class.vector, ptr %this1, i32 0, i32 0
  %9 = load ptr, ptr %m_data9, align 8
  %arrayidx10 = getelementptr inbounds i32, ptr %9, i64 -1
  %10 = load i32, ptr %arrayidx10, align 4
  %inc = add i32 %10, 1
  store i32 %inc, ptr %arrayidx10, align 4
  ret ptr %this1
}

; Function Attrs: mustprogress nounwind uwtable
define linkonce_odr hidden void @_ZNSt4pairIPKcjEC2IRS1_RjTnNSt9enable_ifIXaaclsr5_PCCPE22_MoveConstructiblePairIT_T0_EEclsr5_PCCPE30_ImplicitlyMoveConvertiblePairIS7_S8_EEEbE4typeELb1EEEOS7_OS8_(ptr noundef nonnull align 8 dereferenceable(12) %this, ptr noundef nonnull align 8 dereferenceable(8) %__x, ptr noundef nonnull align 4 dereferenceable(4) %__y) unnamed_addr #5 comdat align 2 {
entry:
  %this.addr = alloca ptr, align 8
  %__x.addr = alloca ptr, align 8
  %__y.addr = alloca ptr, align 8
  store ptr %this, ptr %this.addr, align 8
  store ptr %__x, ptr %__x.addr, align 8
  store ptr %__y, ptr %__y.addr, align 8
  %this1 = load ptr, ptr %this.addr, align 8
  %first = getelementptr inbounds %"struct.std::pair", ptr %this1, i32 0, i32 0
  %0 = load ptr, ptr %__x.addr, align 8
  %1 = load ptr, ptr %0, align 8
  store ptr %1, ptr %first, align 8
  %second = getelementptr inbounds %"struct.std::pair", ptr %this1, i32 0, i32 1
  %2 = load ptr, ptr %__y.addr, align 8
  %3 = load i32, ptr %2, align 4
  store i32 %3, ptr %second, align 8
  ret void
}

; Function Attrs: mustprogress uwtable
define hidden void @_ZN10statistics6updateEPKcd(ptr noundef nonnull align 8 dereferenceable(16) %this, ptr noundef %key, double noundef %inc) #4 align 2 {
entry:
  %this.addr = alloca ptr, align 8
  %key.addr = alloca ptr, align 8
  %inc.addr = alloca double, align 8
  %ref.tmp = alloca %"struct.std::pair.2", align 8
  store ptr %this, ptr %this.addr, align 8
  store ptr %key, ptr %key.addr, align 8
  store double %inc, ptr %inc.addr, align 8
  %this1 = load ptr, ptr %this.addr, align 8
  %0 = load double, ptr %inc.addr, align 8
  %cmp = fcmp une double %0, 0.000000e+00
  br i1 %cmp, label %if.then, label %if.end

if.then:                                          ; preds = %entry
  %m_d_stats = getelementptr inbounds %class.statistics, ptr %this1, i32 0, i32 1
  call void @_ZNSt4pairIPKcdEC2IRS1_RdTnNSt9enable_ifIXaaclsr5_PCCPE22_MoveConstructiblePairIT_T0_EEclsr5_PCCPE30_ImplicitlyMoveConvertiblePairIS7_S8_EEEbE4typeELb1EEEOS7_OS8_(ptr noundef nonnull align 8 dereferenceable(16) %ref.tmp, ptr noundef nonnull align 8 dereferenceable(8) %key.addr, ptr noundef nonnull align 8 dereferenceable(8) %inc.addr)
  %call = call noundef nonnull align 8 dereferenceable(8) ptr @_ZN6vectorISt4pairIPKcdELb0EjE9push_backEOS3_(ptr noundef nonnull align 8 dereferenceable(8) %m_d_stats, ptr noundef nonnull align 8 dereferenceable(16) %ref.tmp)
  br label %if.end

if.end:                                           ; preds = %if.then, %entry
  ret void
}

; Function Attrs: mustprogress uwtable
define hidden void @_ZN10statistics6updateEPKcj(ptr noundef nonnull align 8 dereferenceable(16) %this, ptr noundef %key, i32 noundef %inc) #4 align 2 {
entry:
  %this.addr = alloca ptr, align 8
  %key.addr = alloca ptr, align 8
  %inc.addr = alloca i32, align 4
  %ref.tmp = alloca %"struct.std::pair", align 8
  store ptr %this, ptr %this.addr, align 8
  store ptr %key, ptr %key.addr, align 8
  store i32 %inc, ptr %inc.addr, align 4
  %this1 = load ptr, ptr %this.addr, align 8
  %0 = load i32, ptr %inc.addr, align 4
  %cmp = icmp ne i32 %0, 0
  br i1 %cmp, label %if.then, label %if.end

if.then:                                          ; preds = %entry
  %m_stats = getelementptr inbounds %class.statistics, ptr %this1, i32 0, i32 0
  call void @_ZNSt4pairIPKcjEC2IRS1_RjTnNSt9enable_ifIXaaclsr5_PCCPE22_MoveConstructiblePairIT_T0_EEclsr5_PCCPE30_ImplicitlyMoveConvertiblePairIS7_S8_EEEbE4typeELb1EEEOS7_OS8_(ptr noundef nonnull align 8 dereferenceable(12) %ref.tmp, ptr noundef nonnull align 8 dereferenceable(8) %key.addr, ptr noundef nonnull align 4 dereferenceable(4) %inc.addr)
  %call = call noundef nonnull align 8 dereferenceable(8) ptr @_ZN6vectorISt4pairIPKcjELb0EjE9push_backEOS3_(ptr noundef nonnull align 8 dereferenceable(8) %m_stats, ptr noundef nonnull align 8 dereferenceable(12) %ref.tmp)
  br label %if.end

if.end:                                           ; preds = %if.then, %entry
  ret void
}

; Function Attrs: mustprogress uwtable
define internal void @_ZL16get_uint64_statsR10statisticsPKcy(ptr noundef nonnull align 8 dereferenceable(16) %st, ptr noundef %name, i64 noundef %value) #4 {
entry:
  %st.addr = alloca ptr, align 8
  %name.addr = alloca ptr, align 8
  %value.addr = alloca i64, align 8
  store ptr %st, ptr %st.addr, align 8
  store ptr %name, ptr %name.addr, align 8
  store i64 %value, ptr %value.addr, align 8
  %0 = load i64, ptr %value.addr, align 8
  %cmp = icmp ule i64 %0, 4294967295
  br i1 %cmp, label %if.then, label %if.else

if.then:                                          ; preds = %entry
  %1 = load ptr, ptr %st.addr, align 8
  %2 = load ptr, ptr %name.addr, align 8
  %3 = load i64, ptr %value.addr, align 8
  %conv = trunc i64 %3 to i32
  call void @_ZN10statistics6updateEPKcj(ptr noundef nonnull align 8 dereferenceable(16) %1, ptr noundef %2, i32 noundef %conv)
  br label %if.end

if.else:                                          ; preds = %entry
  %4 = load ptr, ptr %st.addr, align 8
  %5 = load ptr, ptr %name.addr, align 8
  %6 = load i64, ptr %value.addr, align 8
  %conv1 = uitofp i64 %6 to double
  call void @_ZN10statistics6updateEPKcd(ptr noundef nonnull align 8 dereferenceable(16) %4, ptr noundef %5, double noundef %conv1)
  br label %if.end

if.end:                                           ; preds = %if.else, %if.then
  ret void
}

; Function Attrs: mustprogress uwtable
define hidden void @_Z21get_rlimit_statisticsR8reslimitR10statistics(ptr noundef nonnull align 8 dereferenceable(40) %l, ptr noundef nonnull align 8 dereferenceable(16) %st) #4 {
entry:
  %l.addr = alloca ptr, align 8
  %st.addr = alloca ptr, align 8
  store ptr %l, ptr %l.addr, align 8
  store ptr %st, ptr %st.addr, align 8
  %0 = load ptr, ptr %st.addr, align 8
  %1 = load ptr, ptr %l.addr, align 8
  %call = call noundef i64 @_ZNK8reslimit5countEv(ptr noundef nonnull align 8 dereferenceable(40) %1)
  call void @_ZL16get_uint64_statsR10statisticsPKcy(ptr noundef nonnull align 8 dereferenceable(16) %0, ptr noundef @.str.9, i64 noundef %call)
  ret void
}