; Function Attrs: mustprogress uwtable
define hidden void @_Z21get_rlimit_statisticsR8reslimitR10statistics(ptr noundef nonnull align 8 dereferenceable(40) %l, ptr noundef nonnull align 8 dereferenceable(16) %st) local_unnamed_addr #3 {
entry:
  %call = tail call noundef i64 @_ZNK8reslimit5countEv(ptr noundef nonnull align 8 dereferenceable(40) %l)
  %cmp.i = icmp ult i64 %call, 4294967296
  br i1 %cmp.i, label %if.then.i, label %if.else.i

if.then.i:                                        ; preds = %entry
  %conv.i = trunc i64 %call to i32
  %cmp.not.i.i = icmp eq i32 %conv.i, 0
  br i1 %cmp.not.i.i, label %_ZL16get_uint64_statsR10statisticsPKcy.exit, label %if.then.i.i

if.then.i.i:                                      ; preds = %if.then.i
  %0 = load ptr, ptr %st, align 8
  %cmp.i.i.i = icmp eq ptr %0, null
  br i1 %cmp.i.i.i, label %if.then.i.i.i, label %lor.lhs.false.i.i.i

lor.lhs.false.i.i.i:                              ; preds = %if.then.i.i
  %arrayidx.i.i.i = getelementptr inbounds i8, ptr %0, i64 -4
  %1 = load i32, ptr %arrayidx.i.i.i, align 4
  %arrayidx4.i.i.i = getelementptr inbounds i8, ptr %0, i64 -8
  %2 = load i32, ptr %arrayidx4.i.i.i, align 4
  %cmp5.i.i.i = icmp eq i32 %1, %2
  br i1 %cmp5.i.i.i, label %if.then.i.i.i, label %_ZN6vectorISt4pairIPKcjELb0EjE9push_backEOS3_.exit.i.i

if.then.i.i.i:                                    ; preds = %lor.lhs.false.i.i.i, %if.then.i.i
  tail call void @_ZN6vectorISt4pairIPKcjELb0EjE13expand_vectorEv(ptr noundef nonnull align 8 dereferenceable(8) %st)
  %.pre.i.i.i = load ptr, ptr %st, align 8
  %arrayidx8.phi.trans.insert.i.i.i = getelementptr inbounds i8, ptr %.pre.i.i.i, i64 -4
  %.pre1.i.i.i = load i32, ptr %arrayidx8.phi.trans.insert.i.i.i, align 4
  br label %_ZN6vectorISt4pairIPKcjELb0EjE9push_backEOS3_.exit.i.i

_ZN6vectorISt4pairIPKcjELb0EjE9push_backEOS3_.exit.i.i: ; preds = %if.then.i.i.i, %lor.lhs.false.i.i.i
  %3 = phi i32 [ %.pre1.i.i.i, %if.then.i.i.i ], [ %1, %lor.lhs.false.i.i.i ]
  %4 = phi ptr [ %.pre.i.i.i, %if.then.i.i.i ], [ %0, %lor.lhs.false.i.i.i ]
  %idx.ext.i.i.i = zext i32 %3 to i64
  %add.ptr.i.i.i = getelementptr inbounds %"struct.std::pair", ptr %4, i64 %idx.ext.i.i.i
  store ptr @.str.9, ptr %add.ptr.i.i.i, align 8
  %ref.tmp.sroa.2.0.add.ptr.i.sroa_idx.i.i = getelementptr inbounds i8, ptr %add.ptr.i.i.i, i64 8
  store i32 %conv.i, ptr %ref.tmp.sroa.2.0.add.ptr.i.sroa_idx.i.i, align 8
  br label %if.end.sink.split.i

if.else.i:                                        ; preds = %entry
  %conv1.i = uitofp i64 %call to double
  %m_d_stats.i.i = getelementptr inbounds i8, ptr %st, i64 8
  %5 = load ptr, ptr %m_d_stats.i.i, align 8
  %cmp.i.i6.i = icmp eq ptr %5, null
  br i1 %cmp.i.i6.i, label %if.then.i.i16.i, label %lor.lhs.false.i.i7.i

lor.lhs.false.i.i7.i:                             ; preds = %if.else.i
  %arrayidx.i.i8.i = getelementptr inbounds i8, ptr %5, i64 -4
  %6 = load i32, ptr %arrayidx.i.i8.i, align 4
  %arrayidx4.i.i9.i = getelementptr inbounds i8, ptr %5, i64 -8
  %7 = load i32, ptr %arrayidx4.i.i9.i, align 4
  %cmp5.i.i10.i = icmp eq i32 %6, %7
  br i1 %cmp5.i.i10.i, label %if.then.i.i16.i, label %_ZN6vectorISt4pairIPKcdELb0EjE9push_backEOS3_.exit.i.i

if.then.i.i16.i:                                  ; preds = %lor.lhs.false.i.i7.i, %if.else.i
  tail call void @_ZN6vectorISt4pairIPKcdELb0EjE13expand_vectorEv(ptr noundef nonnull align 8 dereferenceable(8) %m_d_stats.i.i)
  %.pre.i.i17.i = load ptr, ptr %m_d_stats.i.i, align 8
  %arrayidx8.phi.trans.insert.i.i18.i = getelementptr inbounds i8, ptr %.pre.i.i17.i, i64 -4
  %.pre1.i.i19.i = load i32, ptr %arrayidx8.phi.trans.insert.i.i18.i, align 4
  br label %_ZN6vectorISt4pairIPKcdELb0EjE9push_backEOS3_.exit.i.i

_ZN6vectorISt4pairIPKcdELb0EjE9push_backEOS3_.exit.i.i: ; preds = %if.then.i.i16.i, %lor.lhs.false.i.i7.i
  %8 = phi i32 [ %.pre1.i.i19.i, %if.then.i.i16.i ], [ %6, %lor.lhs.false.i.i7.i ]
  %9 = phi ptr [ %.pre.i.i17.i, %if.then.i.i16.i ], [ %5, %lor.lhs.false.i.i7.i ]
  %idx.ext.i.i11.i = zext i32 %8 to i64
  %add.ptr.i.i12.i = getelementptr inbounds %"struct.std::pair.2", ptr %9, i64 %idx.ext.i.i11.i
  store ptr @.str.9, ptr %add.ptr.i.i12.i, align 8
  %ref.tmp.sroa.2.0.add.ptr.i.sroa_idx.i13.i = getelementptr inbounds i8, ptr %add.ptr.i.i12.i, i64 8
  store double %conv1.i, ptr %ref.tmp.sroa.2.0.add.ptr.i.sroa_idx.i13.i, align 8
  br label %if.end.sink.split.i

if.end.sink.split.i:                              ; preds = %_ZN6vectorISt4pairIPKcdELb0EjE9push_backEOS3_.exit.i.i, %_ZN6vectorISt4pairIPKcjELb0EjE9push_backEOS3_.exit.i.i
  %st.sink.i = phi ptr [ %st, %_ZN6vectorISt4pairIPKcjELb0EjE9push_backEOS3_.exit.i.i ], [ %m_d_stats.i.i, %_ZN6vectorISt4pairIPKcdELb0EjE9push_backEOS3_.exit.i.i ]
  %10 = load ptr, ptr %st.sink.i, align 8
  %arrayidx10.i.i.i = getelementptr inbounds i8, ptr %10, i64 -4
  %11 = load i32, ptr %arrayidx10.i.i.i, align 4
  %inc.i.i15.i = add i32 %11, 1
  store i32 %inc.i.i15.i, ptr %arrayidx10.i.i.i, align 4
  br label %_ZL16get_uint64_statsR10statisticsPKcy.exit

_ZL16get_uint64_statsR10statisticsPKcy.exit:      ; preds = %if.then.i, %if.end.sink.split.i
  ret void
}